; Function Attrs: mustprogress uwtable
define internal noundef i32 @_ZN11flatbuffers12_GLOBAL__N_116PhpCodeGenerator12GenerateCodeERKNS_6ParserERKNSt7__cxx1112basic_stringIcSt11char_traitsIcESaIcEEESC_(ptr nocapture nonnull readnone align 8 %this, ptr noundef nonnull align 8 dereferenceable(1784) %parser, ptr noundef nonnull align 8 dereferenceable(32) %path, ptr noundef nonnull align 8 dereferenceable(32) %filename) unnamed_addr #2 align 2 personality ptr @__gxx_personality_v0 {
entry:
  %generator.i = alloca %"class.flatbuffers::php::PhpGenerator", align 8
  call void @llvm.lifetime.start.p0(i64 128, ptr nonnull %generator.i)
  call void @_ZN11flatbuffers3php12PhpGeneratorC2ERKNS_6ParserERKNSt7__cxx1112basic_stringIcSt11char_traitsIcESaIcEEESC_(ptr noundef nonnull align 8 dereferenceable(128) %generator.i, ptr noundef nonnull align 8 dereferenceable(1784) %parser, ptr noundef nonnull align 8 dereferenceable(32) %path, ptr noundef nonnull align 8 dereferenceable(32) %filename)
  %call.i = invoke noundef zeroext i1 @_ZN11flatbuffers3php12PhpGenerator8generateEv(ptr noundef nonnull align 8 dereferenceable(128) %generator.i)
          to label %_ZN11flatbuffersL11GeneratePhpERKNS_6ParserERKNSt7__cxx1112basic_stringIcSt11char_traitsIcESaIcEEESA_.exit unwind label %lpad.i

lpad.i:                                           ; preds = %entry
  %0 = landingpad { ptr, i32 }
          cleanup
  call void @_ZN11flatbuffers3php12PhpGeneratorD2Ev(ptr noundef nonnull align 8 dereferenceable(128) %generator.i) #18
  resume { ptr, i32 } %0

_ZN11flatbuffersL11GeneratePhpERKNS_6ParserERKNSt7__cxx1112basic_stringIcSt11char_traitsIcESaIcEEESA_.exit: ; preds = %entry
  store ptr getelementptr inbounds ({ [6 x ptr] }, ptr @_ZTVN11flatbuffers13BaseGeneratorE, i64 0, i32 0, i64 2), ptr %generator.i, align 8
  %default_extension_.i.i.i = getelementptr inbounds i8, ptr %generator.i, i64 96
  call void @_ZNSt7__cxx1112basic_stringIcSt11char_traitsIcESaIcEED1Ev(ptr noundef nonnull align 8 dereferenceable(32) %default_extension_.i.i.i) #18
  %qualifying_separator_.i.i.i = getelementptr inbounds i8, ptr %generator.i, i64 64
  call void @_ZNSt7__cxx1112basic_stringIcSt11char_traitsIcESaIcEED1Ev(ptr noundef nonnull align 8 dereferenceable(32) %qualifying_separator_.i.i.i) #18
  %qualifying_start_.i.i.i = getelementptr inbounds i8, ptr %generator.i, i64 32
  call void @_ZNSt7__cxx1112basic_stringIcSt11char_traitsIcESaIcEED1Ev(ptr noundef nonnull align 8 dereferenceable(32) %qualifying_start_.i.i.i) #18
  call void @llvm.lifetime.end.p0(i64 128, ptr nonnull %generator.i)
  %not.call.i = xor i1 %call.i, true
  %. = zext i1 %not.call.i to i32
  ret i32 %.
}